; Function Attrs: mustprogress nounwind uwtable
define hidden noundef i32 @_ZN8JvmtiEnv23SetNativeMethodPrefixesEiPPc(ptr noundef nonnull align 8 dereferenceable(460) %0, i32 noundef %1, ptr noundef %2) local_unnamed_addr #0 align 2 {
  %4 = load i32, ptr @_ZN7Threads18_number_of_threadsE, align 4
  %5 = icmp eq i32 %4, 0
  br i1 %5, label %6, label %8

6:                                                ; preds = %3
  %7 = tail call noundef i32 @_ZN12JvmtiEnvBase26set_native_method_prefixesEiPPc(ptr noundef nonnull align 8 dereferenceable(460) %0, i32 noundef %1, ptr noundef %2) #17
  br label %_ZN11MutexLockerD2Ev.exit

8:                                                ; preds = %3
  %9 = load ptr, ptr @JvmtiThreadState_lock, align 8
  %.not.i.i = icmp eq ptr %9, null
  br i1 %.not.i.i, label %_ZN11MutexLockerC2EP5MutexNS0_18SafepointCheckFlagE.exit.thread, label %11

_ZN11MutexLockerC2EP5MutexNS0_18SafepointCheckFlagE.exit.thread: ; preds = %8
  %10 = tail call noundef i32 @_ZN12JvmtiEnvBase26set_native_method_prefixesEiPPc(ptr noundef nonnull align 8 dereferenceable(460) %0, i32 noundef %1, ptr noundef %2) #17
  br label %_ZN11MutexLockerD2Ev.exit

11:                                               ; preds = %8
  tail call void @_ZN5Mutex4lockEv(ptr noundef nonnull align 8 dereferenceable(104) %9) #17
  %12 = tail call noundef i32 @_ZN12JvmtiEnvBase26set_native_method_prefixesEiPPc(ptr noundef nonnull align 8 dereferenceable(460) %0, i32 noundef %1, ptr noundef %2) #17
  tail call void @_ZN5Mutex6unlockEv(ptr noundef nonnull align 8 dereferenceable(104) %9) #17
  br label %_ZN11MutexLockerD2Ev.exit

_ZN11MutexLockerD2Ev.exit:                        ; preds = %11, %_ZN11MutexLockerC2EP5MutexNS0_18SafepointCheckFlagE.exit.thread, %6
  %.0 = phi i32 [ %7, %6 ], [ %10, %_ZN11MutexLockerC2EP5MutexNS0_18SafepointCheckFlagE.exit.thread ], [ %12, %11 ]
  ret i32 %.0
}